target datalayout = "e-m:e-p270:32:32-p271:32:32-p272:64:64-i64:64-i128:128-f80:128-n8:16:32:64-S128"
target triple = "x86_64-pc-linux-gnu"

%"class.duckdb_mbedtls::MbedTlsWrapper::SHA256State" = type { ptr }

@.str = private unnamed_addr constant [13 x i8] c"SHA256 Error\00", align 1
@_ZTISt13runtime_error = external constant ptr

; Function Attrs: mustprogress uwtable
define hidden void @_ZN14duckdb_mbedtls14MbedTlsWrapper11SHA256StateC2Ev(ptr noundef nonnull align 8 dereferenceable(8) %0) unnamed_addr #0 align 2 personality ptr @__gxx_personality_v0 {
  %2 = alloca ptr, align 8
  %3 = alloca ptr, align 8
  %4 = alloca ptr, align 8
  %5 = alloca i32, align 4
  store ptr %0, ptr %2, align 8, !tbaa !26
  %6 = load ptr, ptr %2, align 8
  %7 = getelementptr inbounds nuw %"class.duckdb_mbedtls::MbedTlsWrapper::SHA256State", ptr %6, i32 0, i32 0
  %8 = call noalias noundef nonnull ptr @_Znwm(i64 noundef 108) #16
  call void @llvm.memset.p0.i64(ptr align 16 %8, i8 0, i64 108, i1 false)
  store ptr %8, ptr %7, align 8, !tbaa !28
  call void @llvm.lifetime.start.p0(i64 8, ptr %3) #13
  %9 = getelementptr inbounds nuw %"class.duckdb_mbedtls::MbedTlsWrapper::SHA256State", ptr %6, i32 0, i32 0
  %10 = load ptr, ptr %9, align 8, !tbaa !28
  store ptr %10, ptr %3, align 8, !tbaa !30
  %11 = load ptr, ptr %3, align 8, !tbaa !30
  call void @mbedtls_sha256_init(ptr noundef %11)
  %12 = load ptr, ptr %3, align 8, !tbaa !30
  %13 = call i32 @mbedtls_sha256_starts(ptr noundef %12, i32 noundef 0)
  %14 = icmp ne i32 %13, 0
  br i1 %14, label %15, label %22

15:                                               ; preds = %1
  %16 = call ptr @__cxa_allocate_exception(i64 16) #13
  invoke void @_ZNSt13runtime_errorC1EPKc(ptr noundef nonnull align 8 dereferenceable(16) %16, ptr noundef @.str)
          to label %17 unwind label %18

17:                                               ; preds = %15
  call void @__cxa_throw(ptr %16, ptr @_ZTISt13runtime_error, ptr @_ZNSt13runtime_errorD1Ev) #14
  unreachable

18:                                               ; preds = %15
  %19 = landingpad { ptr, i32 }
          cleanup
  %20 = extractvalue { ptr, i32 } %19, 0
  store ptr %20, ptr %4, align 8
  %21 = extractvalue { ptr, i32 } %19, 1
  store i32 %21, ptr %5, align 4
  call void @__cxa_free_exception(ptr %16) #13
  call void @llvm.lifetime.end.p0(i64 8, ptr %3) #13
  br label %23

22:                                               ; preds = %1
  call void @llvm.lifetime.end.p0(i64 8, ptr %3) #13
  ret void

23:                                               ; preds = %18
  %24 = load ptr, ptr %4, align 8
  %25 = load i32, ptr %5, align 4
  %26 = insertvalue { ptr, i32 } poison, ptr %24, 0
  %27 = insertvalue { ptr, i32 } %26, i32 %25, 1
  resume { ptr, i32 } %27
}